; ModuleID = 'source-C-CXX/37/627.c'
source_filename = "source-C-CXX/37/627.c"
target datalayout = "e-m:e-p270:32:32-p271:32:32-p272:64:64-i64:64-f80:128-n8:16:32:64-S128"
target triple = "x86_64-pc-linux-gnu"

@.str = private unnamed_addr constant [3 x i8] c"%d\00", align 1
@.str.1 = private unnamed_addr constant [4 x i8] c"%lf\00", align 1
@.str.2 = private unnamed_addr constant [7 x i8] c"%.5lf\0A\00", align 1

; Function Attrs: nofree nounwind sspstrong uwtable
define dso_local i32 @main() local_unnamed_addr #0 {
  %1 = alloca i32, align 4
  %2 = alloca i32, align 4
  %3 = alloca [100 x double], align 16
  %4 = alloca [1000 x double], align 16
  %5 = bitcast i32* %1 to i8*
  call void @llvm.lifetime.start.p0i8(i64 4, i8* nonnull %5) #4
  %6 = call i32 (i8*, ...) @__isoc99_scanf(i8* getelementptr inbounds ([3 x i8], [3 x i8]* @.str, i64 0, i64 0), i32* nonnull %1)
  %7 = bitcast i32* %2 to i8*
  call void @llvm.lifetime.start.p0i8(i64 4, i8* nonnull %7) #4
  %8 = bitcast [100 x double]* %3 to i8*
  call void @llvm.lifetime.start.p0i8(i64 800, i8* nonnull %8) #4
  %9 = bitcast [1000 x double]* %4 to i8*
  call void @llvm.lifetime.start.p0i8(i64 8000, i8* nonnull %9) #4
  %10 = load i32, i32* %1, align 4, !tbaa !5
  %11 = icmp sgt i32 %10, 0
  br i1 %11, label %14, label %109

12:                                               ; preds = %90
  %13 = icmp sgt i32 %97, 0
  br i1 %13, label %100, label %109

14:                                               ; preds = %0, %90
  %15 = phi i64 [ %96, %90 ], [ 0, %0 ]
  %16 = call i32 (i8*, ...) @__isoc99_scanf(i8* getelementptr inbounds ([3 x i8], [3 x i8]* @.str, i64 0, i64 0), i32* nonnull %2)
  %17 = load i32, i32* %2, align 4, !tbaa !5
  %18 = icmp sgt i32 %17, 0
  br i1 %18, label %21, label %19

19:                                               ; preds = %14
  %20 = sitofp i32 %17 to double
  br label %90

21:                                               ; preds = %14, %21
  %22 = phi double [ %27, %21 ], [ 0.000000e+00, %14 ]
  %23 = phi i64 [ %28, %21 ], [ 0, %14 ]
  %24 = getelementptr inbounds [1000 x double], [1000 x double]* %4, i64 0, i64 %23
  %25 = call i32 (i8*, ...) @__isoc99_scanf(i8* getelementptr inbounds ([4 x i8], [4 x i8]* @.str.1, i64 0, i64 0), double* nonnull %24)
  %26 = load double, double* %24, align 8, !tbaa !9
  %27 = fadd double %22, %26
  %28 = add nuw nsw i64 %23, 1
  %29 = load i32, i32* %2, align 4, !tbaa !5
  %30 = sext i32 %29 to i64
  %31 = icmp slt i64 %28, %30
  br i1 %31, label %21, label %32, !llvm.loop !11

32:                                               ; preds = %21
  %33 = sitofp i32 %29 to double
  %34 = fdiv double %27, %33
  %35 = icmp sgt i32 %29, 0
  br i1 %35, label %36, label %90

36:                                               ; preds = %32
  %37 = zext i32 %29 to i64
  %38 = add nsw i64 %37, -1
  %39 = and i64 %37, 3
  %40 = icmp ult i64 %38, 3
  br i1 %40, label %73, label %41

41:                                               ; preds = %36
  %42 = and i64 %37, 4294967292
  br label %43

43:                                               ; preds = %43, %41
  %44 = phi i64 [ 0, %41 ], [ %70, %43 ]
  %45 = phi double [ 0.000000e+00, %41 ], [ %69, %43 ]
  %46 = phi i64 [ %42, %41 ], [ %71, %43 ]
  %47 = getelementptr inbounds [1000 x double], [1000 x double]* %4, i64 0, i64 %44
  %48 = load double, double* %47, align 16, !tbaa !9
  %49 = fsub double %48, %34
  %50 = fmul double %49, %49
  %51 = fadd double %45, %50
  %52 = or i64 %44, 1
  %53 = getelementptr inbounds [1000 x double], [1000 x double]* %4, i64 0, i64 %52
  %54 = load double, double* %53, align 8, !tbaa !9
  %55 = fsub double %54, %34
  %56 = fmul double %55, %55
  %57 = fadd double %51, %56
  %58 = or i64 %44, 2
  %59 = getelementptr inbounds [1000 x double], [1000 x double]* %4, i64 0, i64 %58
  %60 = load double, double* %59, align 16, !tbaa !9
  %61 = fsub double %60, %34
  %62 = fmul double %61, %61
  %63 = fadd double %57, %62
  %64 = or i64 %44, 3
  %65 = getelementptr inbounds [1000 x double], [1000 x double]* %4, i64 0, i64 %64
  %66 = load double, double* %65, align 8, !tbaa !9
  %67 = fsub double %66, %34
  %68 = fmul double %67, %67
  %69 = fadd double %63, %68
  %70 = add nuw nsw i64 %44, 4
  %71 = add i64 %46, -4
  %72 = icmp eq i64 %71, 0
  br i1 %72, label %73, label %43, !llvm.loop !13

73:                                               ; preds = %43, %36
  %74 = phi double [ undef, %36 ], [ %69, %43 ]
  %75 = phi i64 [ 0, %36 ], [ %70, %43 ]
  %76 = phi double [ 0.000000e+00, %36 ], [ %69, %43 ]
  %77 = icmp eq i64 %39, 0
  br i1 %77, label %90, label %78

78:                                               ; preds = %73, %78
  %79 = phi i64 [ %87, %78 ], [ %75, %73 ]
  %80 = phi double [ %86, %78 ], [ %76, %73 ]
  %81 = phi i64 [ %88, %78 ], [ %39, %73 ]
  %82 = getelementptr inbounds [1000 x double], [1000 x double]* %4, i64 0, i64 %79
  %83 = load double, double* %82, align 8, !tbaa !9
  %84 = fsub double %83, %34
  %85 = fmul double %84, %84
  %86 = fadd double %80, %85
  %87 = add nuw nsw i64 %79, 1
  %88 = add i64 %81, -1
  %89 = icmp eq i64 %88, 0
  br i1 %89, label %90, label %78, !llvm.loop !14

90:                                               ; preds = %73, %78, %19, %32
  %91 = phi double [ %33, %32 ], [ %20, %19 ], [ %33, %78 ], [ %33, %73 ]
  %92 = phi double [ 0.000000e+00, %32 ], [ 0.000000e+00, %19 ], [ %74, %73 ], [ %86, %78 ]
  %93 = fdiv double %92, %91
  %94 = call double @sqrt(double %93) #4
  %95 = getelementptr inbounds [100 x double], [100 x double]* %3, i64 0, i64 %15
  store double %94, double* %95, align 8, !tbaa !9
  %96 = add nuw nsw i64 %15, 1
  %97 = load i32, i32* %1, align 4, !tbaa !5
  %98 = sext i32 %97 to i64
  %99 = icmp slt i64 %96, %98
  br i1 %99, label %14, label %12, !llvm.loop !16

100:                                              ; preds = %12, %100
  %101 = phi i64 [ %105, %100 ], [ 0, %12 ]
  %102 = getelementptr inbounds [100 x double], [100 x double]* %3, i64 0, i64 %101
  %103 = load double, double* %102, align 8, !tbaa !9
  %104 = call i32 (i8*, ...) @printf(i8* nonnull dereferenceable(1) getelementptr inbounds ([7 x i8], [7 x i8]* @.str.2, i64 0, i64 0), double %103)
  %105 = add nuw nsw i64 %101, 1
  %106 = load i32, i32* %1, align 4, !tbaa !5
  %107 = sext i32 %106 to i64
  %108 = icmp slt i64 %105, %107
  br i1 %108, label %100, label %109, !llvm.loop !17

109:                                              ; preds = %100, %0, %12
  call void @llvm.lifetime.end.p0i8(i64 8000, i8* nonnull %9) #4
  call void @llvm.lifetime.end.p0i8(i64 800, i8* nonnull %8) #4
  call void @llvm.lifetime.end.p0i8(i64 4, i8* nonnull %7) #4
  call void @llvm.lifetime.end.p0i8(i64 4, i8* nonnull %5) #4
  ret i32 0
}

; Function Attrs: argmemonly mustprogress nofree nosync nounwind willreturn
declare void @llvm.lifetime.start.p0i8(i64 immarg, i8* nocapture) #1

; Function Attrs: nofree nounwind
declare noundef i32 @__isoc99_scanf(i8* nocapture noundef readonly, ...) local_unnamed_addr #2

; Function Attrs: mustprogress nofree nounwind willreturn
declare double @sqrt(double) local_unnamed_addr #3

; Function Attrs: nofree nounwind
declare noundef i32 @printf(i8* nocapture noundef readonly, ...) local_unnamed_addr #2

; Function Attrs: argmemonly mustprogress nofree nosync nounwind willreturn
declare void @llvm.lifetime.end.p0i8(i64 immarg, i8* nocapture) #1


!llvm.module.flags = !{!0, !1, !2, !3}
!llvm.ident = !{!4}

!0 = !{i32 1, !"wchar_size", i32 4}
!1 = !{i32 7, !"PIC Level", i32 2}
!2 = !{i32 7, !"PIE Level", i32 2}
!3 = !{i32 7, !"uwtable", i32 1}
!4 = !{!"clang version 13.0.0"}
!5 = !{!6, !6, i64 0}
!6 = !{!"int", !7, i64 0}
!7 = !{!"omnipotent char", !8, i64 0}
!8 = !{!"Simple C/C++ TBAA"}
!9 = !{!10, !10, i64 0}
!10 = !{!"double", !7, i64 0}
!11 = distinct !{!11, !12}
!12 = !{!"llvm.loop.mustprogress"}
!13 = distinct !{!13, !12}
!14 = distinct !{!14, !15}
!15 = !{!"llvm.loop.unroll.disable"}
!16 = distinct !{!16, !12}
!17 = distinct !{!17, !12}
